target datalayout = "e-m:e-p270:32:32-p271:32:32-p272:64:64-i64:64-i128:128-f80:128-n8:16:32:64-S128"
target triple = "x86_64-pc-linux-gnu"

%"class.llvm::MCRegUnitRootIterator" = type { i16, i16 }
%"class.llvm::MCRegister" = type { i32 }
%"class.llvm::LiveRegUnits" = type { ptr, %"class.llvm::BitVector" }
%"class.llvm::BitVector" = type <{ %"class.llvm::SmallVector", i32, [4 x i8] }>
%"class.llvm::SmallVector" = type { %"class.llvm::SmallVectorImpl", %"struct.llvm::SmallVectorStorage" }
%"class.llvm::SmallVectorImpl" = type { %"class.llvm::SmallVectorTemplateBase" }
%"class.llvm::SmallVectorTemplateBase" = type { %"class.llvm::SmallVectorTemplateCommon" }
%"class.llvm::SmallVectorTemplateCommon" = type { %"class.llvm::SmallVectorBase" }
%"class.llvm::SmallVectorBase" = type { ptr, i32, i32 }
%"struct.llvm::SmallVectorStorage" = type { [48 x i8] }
%"class.llvm::MCRegisterInfo" = type { ptr, i32, %"class.llvm::MCRegister", %"class.llvm::MCRegister", ptr, i32, i32, ptr, ptr, ptr, ptr, ptr, ptr, i32, ptr, i32, i32, i32, i32, ptr, ptr, ptr, ptr, %"class.llvm::DenseMap", %"class.llvm::DenseMap", %"class.std::vector" }
%"class.llvm::DenseMap" = type <{ ptr, i32, i32, i32, [4 x i8] }>
%"class.std::vector" = type { %"struct.std::_Vector_base" }
%"struct.std::_Vector_base" = type { %"struct.std::_Vector_base<std::vector<unsigned short>, std::allocator<std::vector<unsigned short>>>::_Vector_impl" }
%"struct.std::_Vector_base<std::vector<unsigned short>, std::allocator<std::vector<unsigned short>>>::_Vector_impl" = type { %"struct.std::_Vector_base<std::vector<unsigned short>, std::allocator<std::vector<unsigned short>>>::_Vector_impl_data" }
%"struct.std::_Vector_base<std::vector<unsigned short>, std::allocator<std::vector<unsigned short>>>::_Vector_impl_data" = type { ptr, ptr, ptr }

; Function Attrs: mustprogress nounwind uwtable
define linkonce_odr hidden noundef ptr @_ZN4llvm25SmallVectorTemplateCommonImvE5beginEv(ptr noundef nonnull align 8 dereferenceable(16) %0) #0 comdat align 2 {
  %2 = alloca ptr, align 8
  store ptr %0, ptr %2, align 8
  %3 = load ptr, ptr %2, align 8
  %4 = getelementptr inbounds nuw %"class.llvm::SmallVectorBase", ptr %3, i32 0, i32 0
  %5 = load ptr, ptr %4, align 8
  ret ptr %5
}

; Function Attrs: mustprogress nounwind uwtable
define linkonce_odr hidden noundef nonnull align 8 dereferenceable(8) ptr @_ZN4llvm25SmallVectorTemplateCommonImvEixEm(ptr noundef nonnull align 8 dereferenceable(16) %0, i64 noundef %1) #0 comdat align 2 {
  %3 = alloca ptr, align 8
  %4 = alloca i64, align 8
  store ptr %0, ptr %3, align 8
  store i64 %1, ptr %4, align 8
  %5 = load ptr, ptr %3, align 8
  %6 = call noundef ptr @_ZN4llvm25SmallVectorTemplateCommonImvE5beginEv(ptr noundef nonnull align 8 dereferenceable(16) %5)
  %7 = load i64, ptr %4, align 8
  %8 = getelementptr inbounds i64, ptr %6, i64 %7
  ret ptr %8
}

; Function Attrs: mustprogress nounwind uwtable
define linkonce_odr hidden noundef i32 @_ZNK4llvm10MCRegistercvjEv(ptr noundef nonnull align 4 dereferenceable(4) %0) #0 comdat align 2 {
  %2 = alloca ptr, align 8
  store ptr %0, ptr %2, align 8
  %3 = load ptr, ptr %2, align 8
  %4 = getelementptr inbounds nuw %"class.llvm::MCRegister", ptr %3, i32 0, i32 0
  %5 = load i32, ptr %4, align 4
  ret i32 %5
}

; Function Attrs: mustprogress nounwind uwtable
define linkonce_odr hidden noundef nonnull align 2 dereferenceable(4) ptr @_ZN4llvm21MCRegUnitRootIteratorppEv(ptr noundef nonnull align 2 dereferenceable(4) %0) #0 comdat align 2 {
  %2 = alloca ptr, align 8
  store ptr %0, ptr %2, align 8
  %3 = load ptr, ptr %2, align 8
  %4 = getelementptr inbounds nuw %"class.llvm::MCRegUnitRootIterator", ptr %3, i32 0, i32 1
  %5 = load i16, ptr %4, align 2
  %6 = getelementptr inbounds nuw %"class.llvm::MCRegUnitRootIterator", ptr %3, i32 0, i32 0
  store i16 %5, ptr %6, align 2
  %7 = getelementptr inbounds nuw %"class.llvm::MCRegUnitRootIterator", ptr %3, i32 0, i32 1
  store i16 0, ptr %7, align 2
  ret ptr %3
}

; Function Attrs: mustprogress nounwind uwtable
define linkonce_odr hidden noundef nonnull align 8 dereferenceable(68) ptr @_ZN4llvm9BitVector5resetEj(ptr noundef nonnull align 8 dereferenceable(68) %0, i32 noundef %1) #0 comdat align 2 {
  %3 = alloca ptr, align 8
  %4 = alloca i32, align 4
  store ptr %0, ptr %3, align 8
  store i32 %1, ptr %4, align 4
  %5 = load ptr, ptr %3, align 8
  %6 = load i32, ptr %4, align 4
  %7 = urem i32 %6, 64
  %8 = zext i32 %7 to i64
  %9 = shl i64 1, %8
  %10 = xor i64 %9, -1
  %11 = getelementptr inbounds nuw %"class.llvm::BitVector", ptr %5, i32 0, i32 0
  %12 = load i32, ptr %4, align 4
  %13 = udiv i32 %12, 64
  %14 = zext i32 %13 to i64
  %15 = call noundef nonnull align 8 dereferenceable(8) ptr @_ZN4llvm25SmallVectorTemplateCommonImvEixEm(ptr noundef nonnull align 8 dereferenceable(16) %11, i64 noundef %14)
  %16 = load i64, ptr %15, align 8
  %17 = and i64 %16, %10
  store i64 %17, ptr %15, align 8
  ret ptr %5
}

; Function Attrs: mustprogress nounwind uwtable
define linkonce_odr hidden noundef zeroext i1 @_ZN4llvm14MachineOperand15clobbersPhysRegEPKjNS_10MCRegisterE(ptr noundef %0, i32 %1) #0 comdat align 2 {
  %3 = alloca %"class.llvm::MCRegister", align 4
  %4 = alloca ptr, align 8
  %5 = getelementptr inbounds nuw %"class.llvm::MCRegister", ptr %3, i32 0, i32 0
  store i32 %1, ptr %5, align 4
  store ptr %0, ptr %4, align 8
  %6 = load ptr, ptr %4, align 8
  %7 = call noundef i32 @_ZNK4llvm10MCRegistercvjEv(ptr noundef nonnull align 4 dereferenceable(4) %3)
  %8 = udiv i32 %7, 32
  %9 = zext i32 %8 to i64
  %10 = getelementptr inbounds i32, ptr %6, i64 %9
  %11 = load i32, ptr %10, align 4
  %12 = call noundef i32 @_ZNK4llvm10MCRegistercvjEv(ptr noundef nonnull align 4 dereferenceable(4) %3)
  %13 = urem i32 %12, 32
  %14 = shl i32 1, %13
  %15 = and i32 %11, %14
  %16 = icmp ne i32 %15, 0
  %17 = xor i1 %16, true
  ret i1 %17
}

; Function Attrs: mustprogress nounwind uwtable
define linkonce_odr hidden void @_ZN4llvm10MCRegisterC2Ej(ptr noundef nonnull align 4 dereferenceable(4) %0, i32 noundef %1) unnamed_addr #0 comdat align 2 {
  %3 = alloca ptr, align 8
  %4 = alloca i32, align 4
  store ptr %0, ptr %3, align 8
  store i32 %1, ptr %4, align 4
  %5 = load ptr, ptr %3, align 8
  %6 = getelementptr inbounds nuw %"class.llvm::MCRegister", ptr %5, i32 0, i32 0
  %7 = load i32, ptr %4, align 4
  store i32 %7, ptr %6, align 4
  ret void
}

; Function Attrs: mustprogress nounwind uwtable
define linkonce_odr hidden noundef i32 @_ZNK4llvm21MCRegUnitRootIteratordeEv(ptr noundef nonnull align 2 dereferenceable(4) %0) #0 comdat align 2 {
  %2 = alloca ptr, align 8
  store ptr %0, ptr %2, align 8
  %3 = load ptr, ptr %2, align 8
  %4 = getelementptr inbounds nuw %"class.llvm::MCRegUnitRootIterator", ptr %3, i32 0, i32 0
  %5 = load i16, ptr %4, align 2
  %6 = zext i16 %5 to i32
  ret i32 %6
}

; Function Attrs: mustprogress nounwind uwtable
define linkonce_odr hidden noundef zeroext i1 @_ZNK4llvm21MCRegUnitRootIterator7isValidEv(ptr noundef nonnull align 2 dereferenceable(4) %0) #0 comdat align 2 {
  %2 = alloca ptr, align 8
  store ptr %0, ptr %2, align 8
  %3 = load ptr, ptr %2, align 8
  %4 = getelementptr inbounds nuw %"class.llvm::MCRegUnitRootIterator", ptr %3, i32 0, i32 0
  %5 = load i16, ptr %4, align 2
  %6 = icmp ne i16 %5, 0
  ret i1 %6
}

; Function Attrs: mustprogress nounwind uwtable
define linkonce_odr hidden void @_ZN4llvm21MCRegUnitRootIteratorC2EjPKNS_14MCRegisterInfoE(ptr noundef nonnull align 2 dereferenceable(4) %0, i32 noundef %1, ptr noundef %2) unnamed_addr #0 comdat align 2 {
  %4 = alloca ptr, align 8
  %5 = alloca i32, align 4
  %6 = alloca ptr, align 8
  store ptr %0, ptr %4, align 8
  store i32 %1, ptr %5, align 4
  store ptr %2, ptr %6, align 8
  %7 = load ptr, ptr %4, align 8
  %8 = getelementptr inbounds nuw %"class.llvm::MCRegUnitRootIterator", ptr %7, i32 0, i32 0
  store i16 0, ptr %8, align 2
  %9 = getelementptr inbounds nuw %"class.llvm::MCRegUnitRootIterator", ptr %7, i32 0, i32 1
  store i16 0, ptr %9, align 2
  %10 = load ptr, ptr %6, align 8
  %11 = getelementptr inbounds nuw %"class.llvm::MCRegisterInfo", ptr %10, i32 0, i32 7
  %12 = load ptr, ptr %11, align 8
  %13 = load i32, ptr %5, align 4
  %14 = zext i32 %13 to i64
  %15 = getelementptr inbounds [2 x i16], ptr %12, i64 %14
  %16 = getelementptr inbounds [2 x i16], ptr %15, i64 0, i64 0
  %17 = load i16, ptr %16, align 2
  %18 = getelementptr inbounds nuw %"class.llvm::MCRegUnitRootIterator", ptr %7, i32 0, i32 0
  store i16 %17, ptr %18, align 2
  %19 = load ptr, ptr %6, align 8
  %20 = getelementptr inbounds nuw %"class.llvm::MCRegisterInfo", ptr %19, i32 0, i32 7
  %21 = load ptr, ptr %20, align 8
  %22 = load i32, ptr %5, align 4
  %23 = zext i32 %22 to i64
  %24 = getelementptr inbounds [2 x i16], ptr %21, i64 %23
  %25 = getelementptr inbounds [2 x i16], ptr %24, i64 0, i64 1
  %26 = load i16, ptr %25, align 2
  %27 = getelementptr inbounds nuw %"class.llvm::MCRegUnitRootIterator", ptr %7, i32 0, i32 1
  store i16 %26, ptr %27, align 2
  ret void
}

; Function Attrs: mustprogress nounwind uwtable
define linkonce_odr hidden noundef i32 @_ZNK4llvm14MCRegisterInfo14getNumRegUnitsEv(ptr noundef nonnull align 8 dereferenceable(224) %0) #0 comdat align 2 {
  %2 = alloca ptr, align 8
  store ptr %0, ptr %2, align 8
  %3 = load ptr, ptr %2, align 8
  %4 = getelementptr inbounds nuw %"class.llvm::MCRegisterInfo", ptr %3, i32 0, i32 6
  %5 = load i32, ptr %4, align 4
  ret i32 %5
}

; Function Attrs: mustprogress nounwind uwtable
define dso_local void @_ZN4llvm12LiveRegUnits22removeRegsNotPreservedEPKj(ptr noundef nonnull align 8 dereferenceable(80) %0, ptr noundef %1) #0 align 2 {
  %3 = alloca ptr, align 8
  %4 = alloca ptr, align 8
  %5 = alloca i32, align 4
  %6 = alloca i32, align 4
  %7 = alloca %"class.llvm::MCRegUnitRootIterator", align 2
  %8 = alloca %"class.llvm::MCRegister", align 4
  store ptr %0, ptr %3, align 8
  store ptr %1, ptr %4, align 8
  %9 = load ptr, ptr %3, align 8
  store i32 0, ptr %5, align 4
  %10 = getelementptr inbounds nuw %"class.llvm::LiveRegUnits", ptr %9, i32 0, i32 0
  %11 = load ptr, ptr %10, align 8
  %12 = getelementptr inbounds i8, ptr %11, i64 8
  %13 = call noundef i32 @_ZNK4llvm14MCRegisterInfo14getNumRegUnitsEv(ptr noundef nonnull align 8 dereferenceable(224) %12)
  store i32 %13, ptr %6, align 4
  br label %14

14:                                               ; preds = %43, %2
  %15 = load i32, ptr %5, align 4
  %16 = load i32, ptr %6, align 4
  %17 = icmp ne i32 %15, %16
  br i1 %17, label %18, label %46

18:                                               ; preds = %14
  %19 = load i32, ptr %5, align 4
  %20 = getelementptr inbounds nuw %"class.llvm::LiveRegUnits", ptr %9, i32 0, i32 0
  %21 = load ptr, ptr %20, align 8
  %22 = icmp eq ptr %21, null
  br i1 %22, label %25, label %23

23:                                               ; preds = %18
  %24 = getelementptr inbounds i8, ptr %21, i64 8
  br label %25

25:                                               ; preds = %23, %18
  %26 = phi ptr [ %24, %23 ], [ null, %18 ]
  call void @_ZN4llvm21MCRegUnitRootIteratorC2EjPKNS_14MCRegisterInfoE(ptr noundef nonnull align 2 dereferenceable(4) %7, i32 noundef %19, ptr noundef %26)
  br label %27

27:                                               ; preds = %40, %25
  %28 = call noundef zeroext i1 @_ZNK4llvm21MCRegUnitRootIterator7isValidEv(ptr noundef nonnull align 2 dereferenceable(4) %7)
  br i1 %28, label %29, label %42

29:                                               ; preds = %27
  %30 = load ptr, ptr %4, align 8
  %31 = call noundef i32 @_ZNK4llvm21MCRegUnitRootIteratordeEv(ptr noundef nonnull align 2 dereferenceable(4) %7)
  call void @_ZN4llvm10MCRegisterC2Ej(ptr noundef nonnull align 4 dereferenceable(4) %8, i32 noundef %31)
  %32 = getelementptr inbounds nuw %"class.llvm::MCRegister", ptr %8, i32 0, i32 0
  %33 = load i32, ptr %32, align 4
  %34 = call noundef zeroext i1 @_ZN4llvm14MachineOperand15clobbersPhysRegEPKjNS_10MCRegisterE(ptr noundef %30, i32 %33)
  br i1 %34, label %35, label %39

35:                                               ; preds = %29
  %36 = getelementptr inbounds nuw %"class.llvm::LiveRegUnits", ptr %9, i32 0, i32 1
  %37 = load i32, ptr %5, align 4
  %38 = call noundef nonnull align 8 dereferenceable(68) ptr @_ZN4llvm9BitVector5resetEj(ptr noundef nonnull align 8 dereferenceable(68) %36, i32 noundef %37)
  br label %42

39:                                               ; preds = %29
  br label %40

40:                                               ; preds = %39
  %41 = call noundef nonnull align 2 dereferenceable(4) ptr @_ZN4llvm21MCRegUnitRootIteratorppEv(ptr noundef nonnull align 2 dereferenceable(4) %7)
  br label %27, !llvm.loop !4

42:                                               ; preds = %35, %27
  br label %43

43:                                               ; preds = %42
  %44 = load i32, ptr %5, align 4
  %45 = add i32 %44, 1
  store i32 %45, ptr %5, align 4
  br label %14, !llvm.loop !6

46:                                               ; preds = %14
  ret void
}