; Function Attrs: mustprogress nofree norecurse nosync nounwind memory(readwrite, inaccessiblemem: none) uwtable
define dso_local void @_ZN4llvm12LiveRegUnits22removeRegsNotPreservedEPKj(ptr noundef nonnull readonly align 8 captures(none) dereferenceable(80) %0, ptr noundef readonly captures(none) %1) local_unnamed_addr #0 align 2 {
  %3 = load ptr, ptr %0, align 8
  %4 = getelementptr inbounds nuw i8, ptr %3, i64 44
  %5 = load i32, ptr %4, align 4
  %.not9 = icmp eq i32 %5, 0
  br i1 %.not9, label %._crit_edge, label %.lr.ph

.lr.ph:                                           ; preds = %2
  %6 = getelementptr inbounds nuw i8, ptr %0, i64 8
  %7 = zext i32 %5 to i64
  br label %8

8:                                                ; preds = %.lr.ph, %.loopexit
  %indvars.iv = phi i64 [ 0, %.lr.ph ], [ %indvars.iv.next, %.loopexit ]
  %9 = load ptr, ptr %0, align 8
  %10 = icmp eq ptr %9, null
  %11 = getelementptr inbounds nuw i8, ptr %9, i64 8
  %spec.select = select i1 %10, ptr null, ptr %11
  %12 = getelementptr inbounds nuw i8, ptr %spec.select, i64 40
  %13 = load ptr, ptr %12, align 8
  %14 = getelementptr inbounds nuw [2 x i16], ptr %13, i64 %indvars.iv
  %15 = load i16, ptr %14, align 2
  %16 = getelementptr inbounds nuw [2 x i16], ptr %13, i64 %indvars.iv, i64 1
  %17 = load i16, ptr %16, align 2
  br label %18

18:                                               ; preds = %19, %8
  %.sroa.06.0 = phi i16 [ %15, %8 ], [ %.sroa.5.0, %19 ]
  %.sroa.5.0 = phi i16 [ %17, %8 ], [ 0, %19 ]
  %.not8 = icmp eq i16 %.sroa.06.0, 0
  br i1 %.not8, label %.loopexit, label %19

19:                                               ; preds = %18
  %20 = zext i16 %.sroa.06.0 to i32
  %21 = lshr i32 %20, 5
  %22 = zext nneg i32 %21 to i64
  %23 = getelementptr inbounds nuw i32, ptr %1, i64 %22
  %24 = load i32, ptr %23, align 4
  %25 = and i32 %20, 31
  %26 = shl nuw i32 1, %25
  %27 = and i32 %24, %26
  %.not.i = icmp eq i32 %27, 0
  br i1 %.not.i, label %28, label %18, !llvm.loop !4

28:                                               ; preds = %19
  %29 = and i64 %indvars.iv, 63
  %30 = shl nuw i64 1, %29
  %31 = xor i64 %30, -1
  %32 = lshr i64 %indvars.iv, 6
  %33 = and i64 %32, 67108863
  %34 = load ptr, ptr %6, align 8
  %35 = getelementptr inbounds nuw i64, ptr %34, i64 %33
  %36 = load i64, ptr %35, align 8
  %37 = and i64 %36, %31
  store i64 %37, ptr %35, align 8
  br label %.loopexit

.loopexit:                                        ; preds = %18, %28
  %indvars.iv.next = add nuw nsw i64 %indvars.iv, 1
  %.not = icmp eq i64 %indvars.iv.next, %7
  br i1 %.not, label %._crit_edge, label %8, !llvm.loop !6

._crit_edge:                                      ; preds = %.loopexit, %2
  ret void
}